target datalayout = "e-m:e-p270:32:32-p271:32:32-p272:64:64-i64:64-i128:128-f80:128-n8:16:32:64-S128"
target triple = "x86_64-pc-linux-gnu"

%struct.AVChannelLayout = type { i32, i32, %union.anon.1, ptr }
%union.anon.1 = type { i64 }
%struct.AVCodecContext = type { ptr, i32, i32, ptr, i32, i32, ptr, ptr, ptr, i64, i32, i32, ptr, i32, %struct.AVRational, %struct.AVRational, %struct.AVRational, i32, i32, i32, i32, i32, %struct.AVRational, i32, i32, i32, i32, i32, i32, i32, i32, i32, i32, i32, ptr, ptr, i32, float, float, float, float, float, float, float, float, float, i32, i32, i32, i32, i32, i32, i32, i32, i32, i32, i32, i32, ptr, ptr, ptr, i32, i32, i32, i32, i32, i32, i32, i32, i32, i32, %struct.AVChannelLayout, i32, i32, i32, i32, i32, i32, i32, i32, ptr, i32, i32, i32, float, float, i32, i32, i32, i32, i32, ptr, i64, i64, float, float, i32, i32, ptr, ptr, i32, i32, i32, i32, i32, ptr, ptr, ptr, ptr, i32, i32, [8 x i64], i32, i32, i32, i32, i32, i32, i32, ptr, ptr, i32, i32, i32, i32, i32, i32, i32, i32, i32, i32, ptr, ptr, i32, i32, ptr, ptr, ptr, ptr, i32, i32, i64, i32, i32, i64, ptr, i64, ptr, i32, ptr, i32 }
%struct.AVRational = type { i32, i32 }
%struct.FlacEncodeContext = type { ptr, %struct.PutBitContext, i32, i32, [2 x i32], i32, i32, i32, i32, i32, i32, i64, [16 x i8], %struct.FlacFrame, %struct.CompressionOptions, ptr, [8 x i8], %struct.LPCContext, ptr, ptr, i32, %struct.BswapDSPContext, %struct.FLACEncDSPContext, i32, i64, [8 x i8] }
%struct.PutBitContext = type { i32, i32, ptr, ptr, ptr }
%struct.FlacFrame = type { [8 x %struct.FlacSubframe], [65535 x i64], i32, [2 x i32], i8, i32, i32 }
%struct.FlacSubframe = type { i32, i32, i32, i32, i32, [32 x i32], i32, %struct.RiceContext, [65535 x i32], [32 x [256 x i64]], [65535 x i32], [65546 x i32] }
%struct.RiceContext = type { i32, i32, [256 x i32] }
%struct.CompressionOptions = type { i32, i32, i32, i32, i32, i32, i32, i32, i32, i32, i32, i32, i32 }
%struct.LPCContext = type { i32, i32, i32, ptr, ptr, ptr, ptr, [2 x %struct.LLSModel] }
%struct.LLSModel = type { [36 x [36 x double]], [32 x [32 x double]], [32 x double], i32, ptr, ptr, [8 x i8] }
%struct.BswapDSPContext = type { ptr, ptr }
%struct.FLACEncDSPContext = type { ptr, ptr }

@.str.63 = private unnamed_addr constant [18 x i8] c" compression: %d\0A\00", align 1
@.str.64 = private unnamed_addr constant [17 x i8] c" lpc type: None\0A\00", align 1
@.str.65 = private unnamed_addr constant [43 x i8] c" lpc type: Fixed pre-defined coefficients\0A\00", align 1
@.str.66 = private unnamed_addr constant [56 x i8] c" lpc type: Levinson-Durbin recursion with Welch window\0A\00", align 1
@.str.67 = private unnamed_addr constant [46 x i8] c" lpc type: Cholesky factorization, %d pass%s\0A\00", align 1
@.str.68 = private unnamed_addr constant [1 x i8] zeroinitializer, align 1
@.str.69 = private unnamed_addr constant [3 x i8] c"es\00", align 1
@.str.70 = private unnamed_addr constant [27 x i8] c" prediction order: %d, %d\0A\00", align 1
@.str.71 = private unnamed_addr constant [19 x i8] c" order method: %s\0A\00", align 1
@.str.72 = private unnamed_addr constant [9 x i8] c"estimate\00", align 1
@.str.73 = private unnamed_addr constant [8 x i8] c"2-level\00", align 1
@.str.74 = private unnamed_addr constant [8 x i8] c"4-level\00", align 1
@.str.75 = private unnamed_addr constant [8 x i8] c"8-level\00", align 1
@.str.76 = private unnamed_addr constant [12 x i8] c"full search\00", align 1
@.str.77 = private unnamed_addr constant [11 x i8] c"log search\00", align 1
@.str.78 = private unnamed_addr constant [26 x i8] c" partition order: %d, %d\0A\00", align 1
@.str.79 = private unnamed_addr constant [17 x i8] c" block size: %d\0A\00", align 1
@.str.80 = private unnamed_addr constant [20 x i8] c" lpc precision: %d\0A\00", align 1

; Function Attrs: cold nounwind optsize uwtable
define internal void @dprint_compression_options(ptr noundef %0) #0 {
  %2 = alloca ptr, align 8
  %3 = alloca ptr, align 8
  %4 = alloca ptr, align 8
  store ptr %0, ptr %2, align 8, !tbaa !32
  call void @llvm.lifetime.start.p0(i64 8, ptr %3) #12
  %5 = load ptr, ptr %2, align 8, !tbaa !32
  %6 = getelementptr inbounds nuw %struct.FlacEncodeContext, ptr %5, i32 0, i32 15
  %7 = load ptr, ptr %6, align 16, !tbaa !34
  store ptr %7, ptr %3, align 8, !tbaa !4
  call void @llvm.lifetime.start.p0(i64 8, ptr %4) #12
  %8 = load ptr, ptr %2, align 8, !tbaa !32
  %9 = getelementptr inbounds nuw %struct.FlacEncodeContext, ptr %8, i32 0, i32 14
  store ptr %9, ptr %4, align 8, !tbaa !96
  %10 = load ptr, ptr %3, align 8, !tbaa !4
  %11 = load ptr, ptr %4, align 8, !tbaa !96
  %12 = getelementptr inbounds nuw %struct.CompressionOptions, ptr %11, i32 0, i32 0
  %13 = load i32, ptr %12, align 4, !tbaa !98
  call void (ptr, i32, ptr, ...) @av_log(ptr noundef %10, i32 noundef 48, ptr noundef @.str.63, i32 noundef %13)
  %14 = load ptr, ptr %4, align 8, !tbaa !96
  %15 = getelementptr inbounds nuw %struct.CompressionOptions, ptr %14, i32 0, i32 2
  %16 = load i32, ptr %15, align 4, !tbaa !99
  switch i32 %16, label %33 [
    i32 0, label %17
    i32 1, label %19
    i32 2, label %21
    i32 3, label %23
  ]

17:                                               ; preds = %1
  %18 = load ptr, ptr %3, align 8, !tbaa !4
  call void (ptr, i32, ptr, ...) @av_log(ptr noundef %18, i32 noundef 48, ptr noundef @.str.64)
  br label %33

19:                                               ; preds = %1
  %20 = load ptr, ptr %3, align 8, !tbaa !4
  call void (ptr, i32, ptr, ...) @av_log(ptr noundef %20, i32 noundef 48, ptr noundef @.str.65)
  br label %33

21:                                               ; preds = %1
  %22 = load ptr, ptr %3, align 8, !tbaa !4
  call void (ptr, i32, ptr, ...) @av_log(ptr noundef %22, i32 noundef 48, ptr noundef @.str.66)
  br label %33

23:                                               ; preds = %1
  %24 = load ptr, ptr %3, align 8, !tbaa !4
  %25 = load ptr, ptr %4, align 8, !tbaa !96
  %26 = getelementptr inbounds nuw %struct.CompressionOptions, ptr %25, i32 0, i32 3
  %27 = load i32, ptr %26, align 4, !tbaa !100
  %28 = load ptr, ptr %4, align 8, !tbaa !96
  %29 = getelementptr inbounds nuw %struct.CompressionOptions, ptr %28, i32 0, i32 3
  %30 = load i32, ptr %29, align 4, !tbaa !100
  %31 = icmp eq i32 %30, 1
  %32 = select i1 %31, ptr @.str.68, ptr @.str.69
  call void (ptr, i32, ptr, ...) @av_log(ptr noundef %24, i32 noundef 48, ptr noundef @.str.67, i32 noundef %27, ptr noundef %32)
  br label %33

33:                                               ; preds = %1, %23, %21, %19, %17
  %34 = load ptr, ptr %3, align 8, !tbaa !4
  %35 = load ptr, ptr %4, align 8, !tbaa !96
  %36 = getelementptr inbounds nuw %struct.CompressionOptions, ptr %35, i32 0, i32 5
  %37 = load i32, ptr %36, align 4, !tbaa !101
  %38 = load ptr, ptr %4, align 8, !tbaa !96
  %39 = getelementptr inbounds nuw %struct.CompressionOptions, ptr %38, i32 0, i32 6
  %40 = load i32, ptr %39, align 4, !tbaa !102
  call void (ptr, i32, ptr, ...) @av_log(ptr noundef %34, i32 noundef 48, ptr noundef @.str.70, i32 noundef %37, i32 noundef %40)
  %41 = load ptr, ptr %4, align 8, !tbaa !96
  %42 = getelementptr inbounds nuw %struct.CompressionOptions, ptr %41, i32 0, i32 7
  %43 = load i32, ptr %42, align 4, !tbaa !103
  switch i32 %43, label %56 [
    i32 0, label %44
    i32 1, label %46
    i32 2, label %48
    i32 3, label %50
    i32 4, label %52
    i32 5, label %54
  ]

44:                                               ; preds = %33
  %45 = load ptr, ptr %3, align 8, !tbaa !4
  call void (ptr, i32, ptr, ...) @av_log(ptr noundef %45, i32 noundef 48, ptr noundef @.str.71, ptr noundef @.str.72)
  br label %56

46:                                               ; preds = %33
  %47 = load ptr, ptr %3, align 8, !tbaa !4
  call void (ptr, i32, ptr, ...) @av_log(ptr noundef %47, i32 noundef 48, ptr noundef @.str.71, ptr noundef @.str.73)
  br label %56

48:                                               ; preds = %33
  %49 = load ptr, ptr %3, align 8, !tbaa !4
  call void (ptr, i32, ptr, ...) @av_log(ptr noundef %49, i32 noundef 48, ptr noundef @.str.71, ptr noundef @.str.74)
  br label %56

50:                                               ; preds = %33
  %51 = load ptr, ptr %3, align 8, !tbaa !4
  call void (ptr, i32, ptr, ...) @av_log(ptr noundef %51, i32 noundef 48, ptr noundef @.str.71, ptr noundef @.str.75)
  br label %56

52:                                               ; preds = %33
  %53 = load ptr, ptr %3, align 8, !tbaa !4
  call void (ptr, i32, ptr, ...) @av_log(ptr noundef %53, i32 noundef 48, ptr noundef @.str.71, ptr noundef @.str.76)
  br label %56

54:                                               ; preds = %33
  %55 = load ptr, ptr %3, align 8, !tbaa !4
  call void (ptr, i32, ptr, ...) @av_log(ptr noundef %55, i32 noundef 48, ptr noundef @.str.71, ptr noundef @.str.77)
  br label %56

56:                                               ; preds = %33, %54, %52, %50, %48, %46, %44
  %57 = load ptr, ptr %3, align 8, !tbaa !4
  %58 = load ptr, ptr %4, align 8, !tbaa !96
  %59 = getelementptr inbounds nuw %struct.CompressionOptions, ptr %58, i32 0, i32 8
  %60 = load i32, ptr %59, align 4, !tbaa !104
  %61 = load ptr, ptr %4, align 8, !tbaa !96
  %62 = getelementptr inbounds nuw %struct.CompressionOptions, ptr %61, i32 0, i32 9
  %63 = load i32, ptr %62, align 4, !tbaa !105
  call void (ptr, i32, ptr, ...) @av_log(ptr noundef %57, i32 noundef 48, ptr noundef @.str.78, i32 noundef %60, i32 noundef %63)
  %64 = load ptr, ptr %3, align 8, !tbaa !4
  %65 = load ptr, ptr %3, align 8, !tbaa !4
  %66 = getelementptr inbounds nuw %struct.AVCodecContext, ptr %65, i32 0, i32 72
  %67 = load i32, ptr %66, align 8, !tbaa !63
  call void (ptr, i32, ptr, ...) @av_log(ptr noundef %64, i32 noundef 48, ptr noundef @.str.79, i32 noundef %67)
  %68 = load ptr, ptr %3, align 8, !tbaa !4
  %69 = load ptr, ptr %4, align 8, !tbaa !96
  %70 = getelementptr inbounds nuw %struct.CompressionOptions, ptr %69, i32 0, i32 4
  %71 = load i32, ptr %70, align 4, !tbaa !106
  call void (ptr, i32, ptr, ...) @av_log(ptr noundef %68, i32 noundef 48, ptr noundef @.str.80, i32 noundef %71)
  call void @llvm.lifetime.end.p0(i64 8, ptr %4) #12
  call void @llvm.lifetime.end.p0(i64 8, ptr %3) #12
  ret void
}