; Function Attrs: cold nounwind optsize uwtable
define internal fastcc void @dprint_compression_options(ptr noundef readonly captures(none) %0) unnamed_addr #0 {
  %2 = getelementptr inbounds nuw i8, ptr %0, i64 7350000
  %3 = load ptr, ptr %2, align 16, !tbaa !29
  %4 = getelementptr inbounds nuw i8, ptr %0, i64 7349944
  %5 = load i32, ptr %4, align 4, !tbaa !150
  tail call void (ptr, i32, ptr, ...) @av_log(ptr noundef %3, i32 noundef 48, ptr noundef nonnull @.str.63, i32 noundef %5) #11
  %6 = getelementptr inbounds nuw i8, ptr %0, i64 7349952
  %7 = load i32, ptr %6, align 4, !tbaa !151
  switch i32 %7, label %16 [
    i32 0, label %8
    i32 1, label %9
    i32 2, label %10
    i32 3, label %11
  ]

8:                                                ; preds = %1
  tail call void (ptr, i32, ptr, ...) @av_log(ptr noundef %3, i32 noundef 48, ptr noundef nonnull @.str.64) #11
  br label %16

9:                                                ; preds = %1
  tail call void (ptr, i32, ptr, ...) @av_log(ptr noundef %3, i32 noundef 48, ptr noundef nonnull @.str.65) #11
  br label %16

10:                                               ; preds = %1
  tail call void (ptr, i32, ptr, ...) @av_log(ptr noundef %3, i32 noundef 48, ptr noundef nonnull @.str.66) #11
  br label %16

11:                                               ; preds = %1
  %12 = getelementptr inbounds nuw i8, ptr %0, i64 7349956
  %13 = load i32, ptr %12, align 4, !tbaa !152
  %14 = icmp eq i32 %13, 1
  %15 = select i1 %14, ptr @.str.68, ptr @.str.69
  tail call void (ptr, i32, ptr, ...) @av_log(ptr noundef %3, i32 noundef 48, ptr noundef nonnull @.str.67, i32 noundef %13, ptr noundef nonnull %15) #11
  br label %16

16:                                               ; preds = %11, %10, %9, %8, %1
  %17 = getelementptr inbounds nuw i8, ptr %0, i64 7349964
  %18 = load i32, ptr %17, align 4, !tbaa !153
  %19 = getelementptr inbounds nuw i8, ptr %0, i64 7349968
  %20 = load i32, ptr %19, align 4, !tbaa !154
  tail call void (ptr, i32, ptr, ...) @av_log(ptr noundef %3, i32 noundef 48, ptr noundef nonnull @.str.70, i32 noundef %18, i32 noundef %20) #11
  %21 = getelementptr inbounds nuw i8, ptr %0, i64 7349972
  %22 = load i32, ptr %21, align 4, !tbaa !155
  %23 = icmp ult i32 %22, 6
  br i1 %23, label %switch.lookup, label %25

switch.lookup:                                    ; preds = %16
  %24 = zext nneg i32 %22 to i64
  %switch.gep = getelementptr inbounds nuw [6 x ptr], ptr @switch.table.dprint_compression_options, i64 0, i64 %24
  %switch.load = load ptr, ptr %switch.gep, align 8
  tail call void (ptr, i32, ptr, ...) @av_log(ptr noundef %3, i32 noundef 48, ptr noundef nonnull @.str.71, ptr noundef nonnull %switch.load) #11
  br label %25

25:                                               ; preds = %16, %switch.lookup
  %26 = getelementptr inbounds nuw i8, ptr %0, i64 7349976
  %27 = load i32, ptr %26, align 4, !tbaa !156
  %28 = getelementptr inbounds nuw i8, ptr %0, i64 7349980
  %29 = load i32, ptr %28, align 4, !tbaa !157
  tail call void (ptr, i32, ptr, ...) @av_log(ptr noundef %3, i32 noundef 48, ptr noundef nonnull @.str.78, i32 noundef %27, i32 noundef %29) #11
  %30 = getelementptr inbounds nuw i8, ptr %3, i64 376
  %31 = load i32, ptr %30, align 8, !tbaa !58
  tail call void (ptr, i32, ptr, ...) @av_log(ptr noundef %3, i32 noundef 48, ptr noundef nonnull @.str.79, i32 noundef %31) #11
  %32 = getelementptr inbounds nuw i8, ptr %0, i64 7349960
  %33 = load i32, ptr %32, align 4, !tbaa !158
  tail call void (ptr, i32, ptr, ...) @av_log(ptr noundef %3, i32 noundef 48, ptr noundef nonnull @.str.80, i32 noundef %33) #11
  ret void
}